target datalayout = "e-m:e-p270:32:32-p271:32:32-p272:64:64-i64:64-i128:128-f80:128-n8:16:32:64-S128"
target triple = "x86_64-pc-linux-gnu"

%struct.sockaddr_storage = type { i16, [118 x i8], i64 }

@spawned_srun_ports_size = internal global i32 0, align 4
@spawned_srun_ports = internal global ptr null, align 8
@.str.9 = private unnamed_addr constant [10 x i8] c"127.0.0.1\00", align 1

; Function Attrs: nounwind uwtable
define dso_local i32 @tree_msg_to_spawned_sruns(i32 noundef %0, ptr noundef %1) #0 {
  %3 = alloca i32, align 4
  %4 = alloca i32, align 4
  %5 = alloca ptr, align 8
  %6 = alloca i32, align 4
  %7 = alloca i32, align 4
  %8 = alloca i32, align 4
  %9 = alloca i32, align 4
  %10 = alloca %struct.sockaddr_storage, align 8
  %11 = alloca i32, align 4
  store i32 %0, ptr %4, align 4
  store ptr %1, ptr %5, align 8
  call void @llvm.lifetime.start.p0(i64 4, ptr %6) #6
  store i32 0, ptr %6, align 4
  call void @llvm.lifetime.start.p0(i64 4, ptr %7) #6
  store i32 0, ptr %7, align 4
  call void @llvm.lifetime.start.p0(i64 4, ptr %8) #6
  store i32 -1, ptr %8, align 4
  call void @llvm.lifetime.start.p0(i64 4, ptr %9) #6
  store i32 0, ptr %9, align 4
  call void @llvm.lifetime.start.p0(i64 128, ptr %10) #6
  store i32 0, ptr %6, align 4
  br label %12

12:                                               ; preds = %49, %2
  %13 = load i32, ptr %6, align 4
  %14 = load i32, ptr @spawned_srun_ports_size, align 4
  %15 = icmp ult i32 %13, %14
  br i1 %15, label %16, label %52

16:                                               ; preds = %12
  %17 = load ptr, ptr @spawned_srun_ports, align 8
  %18 = load i32, ptr %6, align 4
  %19 = sext i32 %18 to i64
  %20 = getelementptr inbounds i16, ptr %17, i64 %19
  %21 = load i16, ptr %20, align 2
  %22 = zext i16 %21 to i32
  %23 = icmp eq i32 %22, 0
  br i1 %23, label %24, label %25

24:                                               ; preds = %16
  br label %49

25:                                               ; preds = %16
  %26 = load ptr, ptr @spawned_srun_ports, align 8
  %27 = load i32, ptr %6, align 4
  %28 = sext i32 %27 to i64
  %29 = getelementptr inbounds i16, ptr %26, i64 %28
  %30 = load i16, ptr %29, align 2
  call void @slurm_set_addr(ptr noundef %10, i16 noundef zeroext %30, ptr noundef @.str.9)
  %31 = call i32 @slurm_open_stream(ptr noundef %10, i1 noundef zeroext true)
  store i32 %31, ptr %8, align 4
  %32 = load i32, ptr %8, align 4
  %33 = icmp slt i32 %32, 0
  br i1 %33, label %34, label %35

34:                                               ; preds = %25
  store i32 -1, ptr %3, align 4
  store i32 1, ptr %11, align 4
  br label %54

35:                                               ; preds = %25
  %36 = load i32, ptr %8, align 4
  %37 = load ptr, ptr %5, align 8
  %38 = load i32, ptr %4, align 4
  %39 = zext i32 %38 to i64
  %40 = call i64 @slurm_msg_sendto(i32 noundef %36, ptr noundef %37, i64 noundef %39)
  %41 = trunc i64 %40 to i32
  store i32 %41, ptr %9, align 4
  %42 = load i32, ptr %9, align 4
  %43 = load i32, ptr %4, align 4
  %44 = icmp ne i32 %42, %43
  br i1 %44, label %45, label %46

45:                                               ; preds = %35
  store i32 -1, ptr %7, align 4
  br label %46

46:                                               ; preds = %45, %35
  %47 = load i32, ptr %8, align 4
  %48 = call i32 @close(i32 noundef %47)
  br label %49

49:                                               ; preds = %46, %24
  %50 = load i32, ptr %6, align 4
  %51 = add nsw i32 %50, 1
  store i32 %51, ptr %6, align 4
  br label %12, !llvm.loop !15

52:                                               ; preds = %12
  %53 = load i32, ptr %7, align 4
  store i32 %53, ptr %3, align 4
  store i32 1, ptr %11, align 4
  br label %54

54:                                               ; preds = %52, %34
  call void @llvm.lifetime.end.p0(i64 128, ptr %10) #6
  call void @llvm.lifetime.end.p0(i64 4, ptr %9) #6
  call void @llvm.lifetime.end.p0(i64 4, ptr %8) #6
  call void @llvm.lifetime.end.p0(i64 4, ptr %7) #6
  call void @llvm.lifetime.end.p0(i64 4, ptr %6) #6
  %55 = load i32, ptr %3, align 4
  ret i32 %55
}