; Function Attrs: nounwind uwtable
define dso_local range(i32 -1, 1) i32 @tree_msg_to_spawned_sruns(i32 noundef %0, ptr noundef %1) local_unnamed_addr #0 {
  %3 = alloca %struct.sockaddr_storage, align 8
  call void @llvm.lifetime.start.p0(i64 128, ptr nonnull %3) #7
  %4 = load i32, ptr @spawned_srun_ports_size, align 4
  %.not19 = icmp eq i32 %4, 0
  br i1 %.not19, label %._crit_edge, label %.lr.ph

.lr.ph:                                           ; preds = %2
  %5 = zext i32 %0 to i64
  %.pre21 = load ptr, ptr @spawned_srun_ports, align 8
  br label %6

6:                                                ; preds = %.lr.ph, %19
  %7 = phi i32 [ %4, %.lr.ph ], [ %20, %19 ]
  %8 = phi ptr [ %.pre21, %.lr.ph ], [ %21, %19 ]
  %indvars.iv = phi i64 [ 0, %.lr.ph ], [ %indvars.iv.next, %19 ]
  %.016 = phi i32 [ 0, %.lr.ph ], [ %.1, %19 ]
  %9 = getelementptr inbounds nuw i16, ptr %8, i64 %indvars.iv
  %10 = load i16, ptr %9, align 2
  %11 = icmp eq i16 %10, 0
  br i1 %11, label %19, label %12

12:                                               ; preds = %6
  call void @slurm_set_addr(ptr noundef nonnull %3, i16 noundef zeroext %10, ptr noundef nonnull @.str.9) #7
  %13 = call i32 @slurm_open_stream(ptr noundef nonnull %3, i1 noundef zeroext true) #7
  %14 = icmp slt i32 %13, 0
  br i1 %14, label %._crit_edge, label %15

15:                                               ; preds = %12
  %16 = call i64 @slurm_msg_sendto(i32 noundef %13, ptr noundef %1, i64 noundef %5) #7
  %17 = trunc i64 %16 to i32
  %.not = icmp eq i32 %0, %17
  %spec.select = select i1 %.not, i32 %.016, i32 -1
  %18 = call i32 @close(i32 noundef %13) #7
  %.pre = load ptr, ptr @spawned_srun_ports, align 8
  %.pre22 = load i32, ptr @spawned_srun_ports_size, align 4
  br label %19

19:                                               ; preds = %6, %15
  %20 = phi i32 [ %7, %6 ], [ %.pre22, %15 ]
  %21 = phi ptr [ %8, %6 ], [ %.pre, %15 ]
  %.1 = phi i32 [ %.016, %6 ], [ %spec.select, %15 ]
  %indvars.iv.next = add nuw nsw i64 %indvars.iv, 1
  %22 = zext i32 %20 to i64
  %23 = icmp samesign ult i64 %indvars.iv.next, %22
  br i1 %23, label %6, label %._crit_edge, !llvm.loop !15

._crit_edge:                                      ; preds = %12, %19, %2
  %.013 = phi i32 [ 0, %2 ], [ %.1, %19 ], [ -1, %12 ]
  call void @llvm.lifetime.end.p0(i64 128, ptr nonnull %3) #7
  ret i32 %.013
}